target datalayout = "e-m:e-p270:32:32-p271:32:32-p272:64:64-i64:64-i128:128-f80:128-n8:16:32:64-S128"
target triple = "x86_64-pc-linux-gnu"

%"class.cv::Mat" = type { i32, i32, i32, i32, ptr, ptr, ptr, ptr, ptr, ptr, %"struct.cv::MatSize", %"struct.cv::MatStep" }
%"struct.cv::MatSize" = type { ptr }
%"struct.cv::MatStep" = type { ptr, [2 x i64] }

; Function Attrs: inlinehint mustprogress nounwind uwtable
define linkonce_odr hidden noundef ptr @_ZNK2cv3Mat3ptrIfEEPKT_i(ptr noundef nonnull align 8 dereferenceable(96) %0, i32 noundef %1) #7 comdat align 2 {
  %3 = alloca ptr, align 8
  %4 = alloca i32, align 4
  store ptr %0, ptr %3, align 8, !tbaa !16
  store i32 %1, ptr %4, align 4, !tbaa !8
  %5 = load ptr, ptr %3, align 8
  %6 = getelementptr inbounds nuw %"class.cv::Mat", ptr %5, i32 0, i32 4
  %7 = load ptr, ptr %6, align 8, !tbaa !24
  %8 = getelementptr inbounds nuw %"class.cv::Mat", ptr %5, i32 0, i32 11
  %9 = getelementptr inbounds nuw %"struct.cv::MatStep", ptr %8, i32 0, i32 0
  %10 = load ptr, ptr %9, align 8, !tbaa !33
  %11 = getelementptr inbounds i64, ptr %10, i64 0
  %12 = load i64, ptr %11, align 8, !tbaa !34
  %13 = load i32, ptr %4, align 4, !tbaa !8
  %14 = sext i32 %13 to i64
  %15 = mul i64 %12, %14
  %16 = getelementptr inbounds nuw i8, ptr %7, i64 %15
  ret ptr %16
}

; Function Attrs: mustprogress uwtable
define hidden noundef float @_ZN3vas2ot12RgbHistogram17ComputeSimilarityERKN2cv3MatES5_(ptr noundef nonnull align 8 dereferenceable(96) %0, ptr noundef nonnull align 8 dereferenceable(96) %1) #3 align 2 {
  %3 = alloca float, align 4
  %4 = alloca ptr, align 8
  %5 = alloca ptr, align 8
  %6 = alloca float, align 4
  %7 = alloca i32, align 4
  %8 = alloca ptr, align 8
  %9 = alloca ptr, align 8
  %10 = alloca float, align 4
  %11 = alloca float, align 4
  %12 = alloca float, align 4
  %13 = alloca i32, align 4
  %14 = alloca float, align 4
  %15 = alloca float, align 4
  %16 = alloca i32, align 4
  store ptr %0, ptr %4, align 8, !tbaa !16
  store ptr %1, ptr %5, align 8, !tbaa !16
  call void @llvm.lifetime.start.p0(i64 4, ptr %6) #8
  store float 0x3F1A36E2E0000000, ptr %6, align 4, !tbaa !41
  call void @llvm.lifetime.start.p0(i64 4, ptr %7) #8
  %17 = load ptr, ptr %4, align 8, !tbaa !16
  %18 = getelementptr inbounds nuw %"class.cv::Mat", ptr %17, i32 0, i32 3
  %19 = load i32, ptr %18, align 4, !tbaa !39
  store i32 %19, ptr %7, align 4, !tbaa !8
  call void @llvm.lifetime.start.p0(i64 8, ptr %8) #8
  %20 = load ptr, ptr %4, align 8, !tbaa !16
  %21 = call noundef ptr @_ZNK2cv3Mat3ptrIfEEPKT_i(ptr noundef nonnull align 8 dereferenceable(96) %20, i32 noundef 0)
  store ptr %21, ptr %8, align 8, !tbaa !18
  call void @llvm.lifetime.start.p0(i64 8, ptr %9) #8
  %22 = load ptr, ptr %5, align 8, !tbaa !16
  %23 = call noundef ptr @_ZNK2cv3Mat3ptrIfEEPKT_i(ptr noundef nonnull align 8 dereferenceable(96) %22, i32 noundef 0)
  store ptr %23, ptr %9, align 8, !tbaa !18
  call void @llvm.lifetime.start.p0(i64 4, ptr %10) #8
  store float 0.000000e+00, ptr %10, align 4, !tbaa !41
  call void @llvm.lifetime.start.p0(i64 4, ptr %11) #8
  store float 0.000000e+00, ptr %11, align 4, !tbaa !41
  call void @llvm.lifetime.start.p0(i64 4, ptr %12) #8
  store float 0.000000e+00, ptr %12, align 4, !tbaa !41
  call void @llvm.lifetime.start.p0(i64 4, ptr %13) #8
  store i32 0, ptr %13, align 4, !tbaa !8
  br label %24

24:                                               ; preds = %52, %2
  %25 = load i32, ptr %13, align 4, !tbaa !8
  %26 = load i32, ptr %7, align 4, !tbaa !8
  %27 = icmp slt i32 %25, %26
  br i1 %27, label %29, label %28

28:                                               ; preds = %24
  call void @llvm.lifetime.end.p0(i64 4, ptr %13) #8
  br label %55

29:                                               ; preds = %24
  call void @llvm.lifetime.start.p0(i64 4, ptr %14) #8
  %30 = load ptr, ptr %8, align 8, !tbaa !18
  %31 = load i32, ptr %13, align 4, !tbaa !8
  %32 = sext i32 %31 to i64
  %33 = getelementptr inbounds float, ptr %30, i64 %32
  %34 = load float, ptr %33, align 4, !tbaa !41
  store float %34, ptr %14, align 4, !tbaa !41
  call void @llvm.lifetime.start.p0(i64 4, ptr %15) #8
  %35 = load ptr, ptr %9, align 8, !tbaa !18
  %36 = load i32, ptr %13, align 4, !tbaa !8
  %37 = sext i32 %36 to i64
  %38 = getelementptr inbounds float, ptr %35, i64 %37
  %39 = load float, ptr %38, align 4, !tbaa !41
  store float %39, ptr %15, align 4, !tbaa !41
  %40 = load float, ptr %14, align 4, !tbaa !41
  %41 = load float, ptr %15, align 4, !tbaa !41
  %42 = fmul float %40, %41
  %43 = call float @sqrtf(float noundef %42) #8, !tbaa !8
  %44 = load float, ptr %10, align 4, !tbaa !41
  %45 = fadd float %44, %43
  store float %45, ptr %10, align 4, !tbaa !41
  %46 = load float, ptr %14, align 4, !tbaa !41
  %47 = load float, ptr %11, align 4, !tbaa !41
  %48 = fadd float %47, %46
  store float %48, ptr %11, align 4, !tbaa !41
  %49 = load float, ptr %15, align 4, !tbaa !41
  %50 = load float, ptr %12, align 4, !tbaa !41
  %51 = fadd float %50, %49
  store float %51, ptr %12, align 4, !tbaa !41
  call void @llvm.lifetime.end.p0(i64 4, ptr %15) #8
  call void @llvm.lifetime.end.p0(i64 4, ptr %14) #8
  br label %52

52:                                               ; preds = %29
  %53 = load i32, ptr %13, align 4, !tbaa !8
  %54 = add nsw i32 %53, 1
  store i32 %54, ptr %13, align 4, !tbaa !8
  br label %24, !llvm.loop !50

55:                                               ; preds = %28
  %56 = load float, ptr %11, align 4, !tbaa !41
  %57 = fcmp ogt float %56, 0x3F1A36E2E0000000
  br i1 %57, label %58, label %68

58:                                               ; preds = %55
  %59 = load float, ptr %12, align 4, !tbaa !41
  %60 = fcmp ogt float %59, 0x3F1A36E2E0000000
  br i1 %60, label %61, label %68

61:                                               ; preds = %58
  %62 = load float, ptr %10, align 4, !tbaa !41
  %63 = load float, ptr %11, align 4, !tbaa !41
  %64 = load float, ptr %12, align 4, !tbaa !41
  %65 = fmul float %63, %64
  %66 = call float @sqrtf(float noundef %65) #8, !tbaa !8
  %67 = fdiv float %62, %66
  store float %67, ptr %3, align 4
  store i32 1, ptr %16, align 4
  br label %69

68:                                               ; preds = %58, %55
  store float 0.000000e+00, ptr %3, align 4
  store i32 1, ptr %16, align 4
  br label %69

69:                                               ; preds = %68, %61
  call void @llvm.lifetime.end.p0(i64 4, ptr %12) #8
  call void @llvm.lifetime.end.p0(i64 4, ptr %11) #8
  call void @llvm.lifetime.end.p0(i64 4, ptr %10) #8
  call void @llvm.lifetime.end.p0(i64 8, ptr %9) #8
  call void @llvm.lifetime.end.p0(i64 8, ptr %8) #8
  call void @llvm.lifetime.end.p0(i64 4, ptr %7) #8
  call void @llvm.lifetime.end.p0(i64 4, ptr %6) #8
  %70 = load float, ptr %3, align 4
  ret float %70
}