; Function Attrs: mustprogress nofree nounwind memory(readwrite, inaccessiblemem: write) uwtable
define hidden noundef float @_ZN3vas2ot12RgbHistogram17ComputeSimilarityERKN2cv3MatES5_(ptr noundef nonnull readonly align 8 captures(none) dereferenceable(96) %0, ptr noundef nonnull readonly align 8 captures(none) dereferenceable(96) %1) local_unnamed_addr #10 align 2 {
  %3 = getelementptr inbounds nuw i8, ptr %0, i64 12
  %4 = load i32, ptr %3, align 4, !tbaa !27
  %5 = getelementptr inbounds nuw i8, ptr %0, i64 16
  %6 = load ptr, ptr %5, align 8, !tbaa !13
  %7 = getelementptr inbounds nuw i8, ptr %1, i64 16
  %8 = load ptr, ptr %7, align 8, !tbaa !13
  %9 = icmp sgt i32 %4, 0
  br i1 %9, label %.lr.ph.preheader, label %._crit_edge.thread

.lr.ph.preheader:                                 ; preds = %2
  %wide.trip.count = zext nneg i32 %4 to i64
  br label %.lr.ph

._crit_edge:                                      ; preds = %.lr.ph
  %10 = fcmp ogt float %19, 0x3F1A36E2E0000000
  %11 = fcmp ogt float %20, 0x3F1A36E2E0000000
  %or.cond = select i1 %10, i1 %11, i1 false
  br i1 %or.cond, label %21, label %._crit_edge.thread

.lr.ph:                                           ; preds = %.lr.ph.preheader, %.lr.ph
  %indvars.iv = phi i64 [ 0, %.lr.ph.preheader ], [ %indvars.iv.next, %.lr.ph ]
  %.02330 = phi float [ 0.000000e+00, %.lr.ph.preheader ], [ %18, %.lr.ph ]
  %.02528 = phi float [ 0.000000e+00, %.lr.ph.preheader ], [ %20, %.lr.ph ]
  %.02627 = phi float [ 0.000000e+00, %.lr.ph.preheader ], [ %19, %.lr.ph ]
  %12 = getelementptr inbounds nuw float, ptr %6, i64 %indvars.iv
  %13 = load float, ptr %12, align 4, !tbaa !29
  %14 = getelementptr inbounds nuw float, ptr %8, i64 %indvars.iv
  %15 = load float, ptr %14, align 4, !tbaa !29
  %16 = fmul float %13, %15
  %17 = tail call float @sqrtf(float noundef %16) #12, !tbaa !11
  %18 = fadd float %.02330, %17
  %19 = fadd float %.02627, %13
  %20 = fadd float %.02528, %15
  %indvars.iv.next = add nuw nsw i64 %indvars.iv, 1
  %exitcond.not = icmp eq i64 %indvars.iv.next, %wide.trip.count
  br i1 %exitcond.not, label %._crit_edge, label %.lr.ph, !llvm.loop !36

21:                                               ; preds = %._crit_edge
  %22 = fmul float %19, %20
  %23 = tail call float @sqrtf(float noundef %22) #12, !tbaa !11
  %24 = fdiv float %18, %23
  br label %._crit_edge.thread

._crit_edge.thread:                               ; preds = %2, %._crit_edge, %21
  %.0 = phi float [ %24, %21 ], [ 0.000000e+00, %._crit_edge ], [ 0.000000e+00, %2 ]
  ret float %.0
}